; Function Attrs: nounwind uwtable
define internal fastcc void @mi_segment_try_purge(ptr noundef %0, i1 noundef zeroext %1) unnamed_addr #4 {
  %3 = alloca %struct.mi_commit_mask_s, align 8
  %4 = getelementptr inbounds nuw i8, ptr %0, i64 25
  %5 = load i8, ptr %4, align 1, !tbaa !23, !range !30, !noundef !31
  %6 = trunc nuw i8 %5 to i1
  br i1 %6, label %7, label %61

7:                                                ; preds = %2
  %8 = getelementptr inbounds nuw i8, ptr %0, i64 48
  %9 = load i64, ptr %8, align 8, !tbaa !32
  %10 = icmp eq i64 %9, 0
  br i1 %10, label %61, label %11

11:                                               ; preds = %7
  %12 = getelementptr inbounds nuw i8, ptr %0, i64 56
  br label %13

13:                                               ; preds = %13, %11
  %.057.i = phi i64 [ 0, %11 ], [ %16, %13 ]
  %14 = getelementptr inbounds nuw [8 x i64], ptr %12, i64 0, i64 %.057.i
  %15 = load i64, ptr %14, align 8, !tbaa !3
  %.not.i = icmp eq i64 %15, 0
  %16 = add nuw nsw i64 %.057.i, 1
  %exitcond.i = icmp ne i64 %16, 8
  %or.cond.not.i = select i1 %.not.i, i1 %exitcond.i, i1 false
  br i1 %or.cond.not.i, label %13, label %mi_commit_mask_is_empty.exit, !llvm.loop !33

mi_commit_mask_is_empty.exit:                     ; preds = %13
  br i1 %.not.i, label %61, label %17

17:                                               ; preds = %mi_commit_mask_is_empty.exit
  %18 = tail call i64 @_mi_clock_now() #11
  br i1 %1, label %22, label %19

19:                                               ; preds = %17
  %20 = load i64, ptr %8, align 8, !tbaa !32
  %21 = icmp slt i64 %18, %20
  br i1 %21, label %61, label %22

22:                                               ; preds = %19, %17
  call void @llvm.lifetime.start.p0(i64 64, ptr nonnull %3) #12
  call void @llvm.memcpy.p0.p0.i64(ptr noundef nonnull align 8 dereferenceable(64) %3, ptr noundef nonnull align 8 dereferenceable(64) %12, i64 64, i1 false), !tbaa.struct !34
  tail call void @llvm.memset.p0.i64(ptr noundef nonnull align 8 dereferenceable(72) %8, i8 0, i64 72, i1 false)
  br label %.lr.ph.preheader.i

.lr.ph.preheader.i:                               ; preds = %22, %55
  %storemerge29 = phi i64 [ 0, %22 ], [ %59, %55 ]
  %23 = and i64 %storemerge29, 63
  %24 = lshr i64 %storemerge29, 6
  br label %.lr.ph.i

.lr.ph.i:                                         ; preds = %34, %.lr.ph.preheader.i
  %.03049.i = phi i64 [ 0, %34 ], [ %23, %.lr.ph.preheader.i ]
  %.03348.i = phi i64 [ %35, %34 ], [ %24, %.lr.ph.preheader.i ]
  %25 = getelementptr inbounds nuw [8 x i64], ptr %3, i64 0, i64 %.03348.i
  %26 = load i64, ptr %25, align 8, !tbaa !3
  %27 = lshr i64 %26, %.03049.i
  %.not.i15 = icmp eq i64 %27, 0
  br i1 %.not.i15, label %34, label %.preheader.i

.preheader.i:                                     ; preds = %.lr.ph.i
  %28 = and i64 %27, 1
  %29 = icmp eq i64 %28, 0
  br i1 %29, label %.lr.ph52.i, label %._crit_edge.i

.lr.ph52.i:                                       ; preds = %.preheader.i, %.lr.ph52.i
  %.251.i = phi i64 [ %30, %.lr.ph52.i ], [ %27, %.preheader.i ]
  %.23250.i = phi i64 [ %31, %.lr.ph52.i ], [ %.03049.i, %.preheader.i ]
  %30 = lshr exact i64 %.251.i, 1
  %31 = add i64 %.23250.i, 1
  %32 = and i64 %.251.i, 2
  %33 = icmp eq i64 %32, 0
  br i1 %33, label %.lr.ph52.i, label %._crit_edge.i, !llvm.loop !10

34:                                               ; preds = %.lr.ph.i
  %35 = add nuw nsw i64 %.03348.i, 1
  %exitcond.not.i = icmp eq i64 %35, 8
  br i1 %exitcond.not.i, label %_mi_commit_mask_next_run.exit.thread, label %.lr.ph.i, !llvm.loop !11

._crit_edge.i:                                    ; preds = %.lr.ph52.i, %.preheader.i
  %.232.lcssa.i = phi i64 [ %.03049.i, %.preheader.i ], [ %31, %.lr.ph52.i ]
  %.2.lcssa.i = phi i64 [ %27, %.preheader.i ], [ %30, %.lr.ph52.i ]
  %36 = shl nuw nsw i64 %.03348.i, 6
  %37 = add i64 %.232.lcssa.i, %36
  br label %38

38:                                               ; preds = %53, %._crit_edge.i
  %.134.i = phi i64 [ %.03348.i, %._crit_edge.i ], [ %.235.i, %53 ]
  %.3.i = phi i64 [ %.2.lcssa.i, %._crit_edge.i ], [ %.5.i, %53 ]
  %.0.i = phi i64 [ 0, %._crit_edge.i ], [ %40, %53 ]
  br label %39

39:                                               ; preds = %39, %38
  %.4.i = phi i64 [ %.3.i, %38 ], [ %41, %39 ]
  %.1.i = phi i64 [ %.0.i, %38 ], [ %40, %39 ]
  %40 = add i64 %.1.i, 1
  %41 = lshr i64 %.4.i, 1
  %42 = and i64 %.4.i, 2
  %.not40.i = icmp eq i64 %42, 0
  br i1 %.not40.i, label %43, label %39, !llvm.loop !12

43:                                               ; preds = %39
  %44 = add i64 %40, %.232.lcssa.i
  %45 = and i64 %44, 63
  %46 = icmp eq i64 %45, 0
  br i1 %46, label %47, label %53

47:                                               ; preds = %43
  %48 = icmp ugt i64 %.134.i, 6
  br i1 %48, label %_mi_commit_mask_next_run.exit, label %49

49:                                               ; preds = %47
  %50 = add nuw nsw i64 %.134.i, 1
  %51 = getelementptr inbounds nuw [8 x i64], ptr %3, i64 0, i64 %50
  %52 = load i64, ptr %51, align 8, !tbaa !3
  br label %53

53:                                               ; preds = %49, %43
  %.235.i = phi i64 [ %50, %49 ], [ %.134.i, %43 ]
  %.5.i = phi i64 [ %52, %49 ], [ %41, %43 ]
  %54 = and i64 %.5.i, 1
  %.not41.i = icmp eq i64 %54, 0
  br i1 %.not41.i, label %_mi_commit_mask_next_run.exit, label %38, !llvm.loop !13

_mi_commit_mask_next_run.exit:                    ; preds = %47, %53
  %.not = icmp eq i64 %40, 0
  br i1 %.not, label %_mi_commit_mask_next_run.exit.thread, label %55

55:                                               ; preds = %_mi_commit_mask_next_run.exit
  %56 = shl i64 %37, 16
  %57 = getelementptr inbounds nuw i8, ptr %0, i64 %56
  %58 = shl i64 %40, 16
  tail call fastcc void @mi_segment_purge(ptr noundef %0, ptr noundef %57, i64 noundef %58) #10
  %59 = add i64 %40, %37
  %60 = icmp ult i64 %59, 512
  br i1 %60, label %.lr.ph.preheader.i, label %_mi_commit_mask_next_run.exit.thread, !llvm.loop !36

_mi_commit_mask_next_run.exit.thread:             ; preds = %55, %_mi_commit_mask_next_run.exit, %34
  call void @llvm.lifetime.end.p0(i64 64, ptr nonnull %3) #12
  br label %61

61:                                               ; preds = %_mi_commit_mask_next_run.exit.thread, %19, %2, %7, %mi_commit_mask_is_empty.exit
  ret void
}